target datalayout = "e-m:e-p270:32:32-p271:32:32-p272:64:64-i64:64-i128:128-f80:128-n8:16:32:64-S128"
target triple = "x86_64-pc-linux-gnu"

%struct.MovTextContext = type { ptr, ptr, ptr, ptr, ptr, i32, i32, %struct.StyleBox, %struct.AVBPrint, %struct.HighlightBox, %struct.HilightcolorBox, i8, %struct.StyleBox, i16, ptr, i32, double, i32 }
%struct.AVBPrint = type { ptr, i32, i32, i32, [1 x i8], [1000 x i8] }
%struct.HighlightBox = type { i16, i16 }
%struct.HilightcolorBox = type { i32 }
%struct.StyleBox = type { i16, i16, i8, i16, i8, i32 }

; Function Attrs: nounwind uwtable
define internal void @mov_text_color_set(ptr noundef %0, i32 noundef %1) #1 {
  %3 = alloca ptr, align 8
  %4 = alloca i32, align 4
  store ptr %0, ptr %3, align 8, !tbaa !29
  store i32 %1, ptr %4, align 4, !tbaa !42
  %5 = load ptr, ptr %3, align 8, !tbaa !29
  %6 = getelementptr inbounds nuw %struct.MovTextContext, ptr %5, i32 0, i32 7
  %7 = getelementptr inbounds nuw %struct.StyleBox, ptr %6, i32 0, i32 5
  %8 = load i32, ptr %7, align 4, !tbaa !106
  %9 = and i32 %8, -256
  %10 = load i32, ptr %4, align 4, !tbaa !42
  %11 = icmp eq i32 %9, %10
  br i1 %11, label %12, label %13

12:                                               ; preds = %2
  br label %29

13:                                               ; preds = %2
  %14 = load ptr, ptr %3, align 8, !tbaa !29
  %15 = call i32 @mov_text_style_start(ptr noundef %14)
  %16 = icmp ne i32 %15, 0
  br i1 %16, label %17, label %29

17:                                               ; preds = %13
  %18 = load i32, ptr %4, align 4, !tbaa !42
  %19 = and i32 %18, -256
  %20 = load ptr, ptr %3, align 8, !tbaa !29
  %21 = getelementptr inbounds nuw %struct.MovTextContext, ptr %20, i32 0, i32 7
  %22 = getelementptr inbounds nuw %struct.StyleBox, ptr %21, i32 0, i32 5
  %23 = load i32, ptr %22, align 4, !tbaa !106
  %24 = and i32 %23, 255
  %25 = or i32 %19, %24
  %26 = load ptr, ptr %3, align 8, !tbaa !29
  %27 = getelementptr inbounds nuw %struct.MovTextContext, ptr %26, i32 0, i32 7
  %28 = getelementptr inbounds nuw %struct.StyleBox, ptr %27, i32 0, i32 5
  store i32 %25, ptr %28, align 4, !tbaa !106
  br label %29

29:                                               ; preds = %12, %17, %13
  ret void
}

; Function Attrs: nounwind uwtable
define internal void @mov_text_color_cb(ptr noundef %0, i32 noundef %1, i32 noundef %2) #1 {
  %4 = alloca ptr, align 8
  %5 = alloca i32, align 4
  %6 = alloca i32, align 4
  %7 = alloca ptr, align 8
  store ptr %0, ptr %4, align 8, !tbaa !29
  store i32 %1, ptr %5, align 4, !tbaa !42
  store i32 %2, ptr %6, align 4, !tbaa !42
  call void @llvm.lifetime.start.p0(i64 8, ptr %7) #11
  %8 = load ptr, ptr %4, align 8, !tbaa !29
  store ptr %8, ptr %7, align 8, !tbaa !29
  %9 = load i32, ptr %5, align 4, !tbaa !42
  %10 = and i32 %9, 255
  %11 = shl i32 %10, 16
  %12 = load i32, ptr %5, align 4, !tbaa !42
  %13 = and i32 %12, 65280
  %14 = or i32 %11, %13
  %15 = load i32, ptr %5, align 4, !tbaa !42
  %16 = lshr i32 %15, 16
  %17 = and i32 %16, 255
  %18 = or i32 %14, %17
  %19 = shl i32 %18, 8
  store i32 %19, ptr %5, align 4, !tbaa !42
  %20 = load i32, ptr %6, align 4, !tbaa !42
  %21 = icmp eq i32 %20, 1
  br i1 %21, label %22, label %25

22:                                               ; preds = %3
  %23 = load ptr, ptr %7, align 8, !tbaa !29
  %24 = load i32, ptr %5, align 4, !tbaa !42
  call void @mov_text_color_set(ptr noundef %23, i32 noundef %24)
  br label %99

25:                                               ; preds = %3
  %26 = load i32, ptr %6, align 4, !tbaa !42
  %27 = icmp eq i32 %26, 2
  br i1 %27, label %28, label %98

28:                                               ; preds = %25
  %29 = load ptr, ptr %7, align 8, !tbaa !29
  %30 = getelementptr inbounds nuw %struct.MovTextContext, ptr %29, i32 0, i32 11
  %31 = load i8, ptr %30, align 8, !tbaa !48
  %32 = zext i8 %31 to i32
  %33 = and i32 %32, 4
  %34 = icmp ne i32 %33, 0
  br i1 %34, label %43, label %35

35:                                               ; preds = %28
  %36 = load ptr, ptr %7, align 8, !tbaa !29
  %37 = getelementptr inbounds nuw %struct.MovTextContext, ptr %36, i32 0, i32 7
  %38 = getelementptr inbounds nuw %struct.StyleBox, ptr %37, i32 0, i32 5
  %39 = load i32, ptr %38, align 4, !tbaa !106
  %40 = load ptr, ptr %7, align 8, !tbaa !29
  %41 = getelementptr inbounds nuw %struct.MovTextContext, ptr %40, i32 0, i32 10
  %42 = getelementptr inbounds nuw %struct.HilightcolorBox, ptr %41, i32 0, i32 0
  store i32 %39, ptr %42, align 4, !tbaa !114
  br label %43

43:                                               ; preds = %35, %28
  %44 = load ptr, ptr %7, align 8, !tbaa !29
  %45 = getelementptr inbounds nuw %struct.MovTextContext, ptr %44, i32 0, i32 11
  %46 = load i8, ptr %45, align 8, !tbaa !48
  %47 = zext i8 %46 to i32
  %48 = and i32 %47, 2
  %49 = icmp ne i32 %48, 0
  br i1 %49, label %50, label %61

50:                                               ; preds = %43
  %51 = load ptr, ptr %7, align 8, !tbaa !29
  %52 = getelementptr inbounds nuw %struct.MovTextContext, ptr %51, i32 0, i32 9
  %53 = getelementptr inbounds nuw %struct.HighlightBox, ptr %52, i32 0, i32 0
  %54 = load i16, ptr %53, align 8, !tbaa !115
  %55 = zext i16 %54 to i32
  %56 = load ptr, ptr %7, align 8, !tbaa !29
  %57 = getelementptr inbounds nuw %struct.MovTextContext, ptr %56, i32 0, i32 13
  %58 = load i16, ptr %57, align 4, !tbaa !46
  %59 = zext i16 %58 to i32
  %60 = icmp eq i32 %55, %59
  br i1 %60, label %61, label %90

61:                                               ; preds = %50, %43
  %62 = load ptr, ptr %7, align 8, !tbaa !29
  %63 = getelementptr inbounds nuw %struct.MovTextContext, ptr %62, i32 0, i32 11
  %64 = load i8, ptr %63, align 8, !tbaa !48
  %65 = zext i8 %64 to i32
  %66 = or i32 %65, 4
  %67 = trunc i32 %66 to i8
  store i8 %67, ptr %63, align 8, !tbaa !48
  %68 = load ptr, ptr %7, align 8, !tbaa !29
  %69 = getelementptr inbounds nuw %struct.MovTextContext, ptr %68, i32 0, i32 11
  %70 = load i8, ptr %69, align 8, !tbaa !48
  %71 = zext i8 %70 to i32
  %72 = or i32 %71, 2
  %73 = trunc i32 %72 to i8
  store i8 %73, ptr %69, align 8, !tbaa !48
  %74 = load ptr, ptr %7, align 8, !tbaa !29
  %75 = getelementptr inbounds nuw %struct.MovTextContext, ptr %74, i32 0, i32 13
  %76 = load i16, ptr %75, align 4, !tbaa !46
  %77 = load ptr, ptr %7, align 8, !tbaa !29
  %78 = getelementptr inbounds nuw %struct.MovTextContext, ptr %77, i32 0, i32 9
  %79 = getelementptr inbounds nuw %struct.HighlightBox, ptr %78, i32 0, i32 0
  store i16 %76, ptr %79, align 8, !tbaa !115
  %80 = load i32, ptr %5, align 4, !tbaa !42
  %81 = load ptr, ptr %7, align 8, !tbaa !29
  %82 = getelementptr inbounds nuw %struct.MovTextContext, ptr %81, i32 0, i32 10
  %83 = getelementptr inbounds nuw %struct.HilightcolorBox, ptr %82, i32 0, i32 0
  %84 = load i32, ptr %83, align 4, !tbaa !114
  %85 = and i32 %84, 255
  %86 = or i32 %80, %85
  %87 = load ptr, ptr %7, align 8, !tbaa !29
  %88 = getelementptr inbounds nuw %struct.MovTextContext, ptr %87, i32 0, i32 10
  %89 = getelementptr inbounds nuw %struct.HilightcolorBox, ptr %88, i32 0, i32 0
  store i32 %86, ptr %89, align 4, !tbaa !114
  br label %97

90:                                               ; preds = %50
  %91 = load ptr, ptr %7, align 8, !tbaa !29
  %92 = getelementptr inbounds nuw %struct.MovTextContext, ptr %91, i32 0, i32 13
  %93 = load i16, ptr %92, align 4, !tbaa !46
  %94 = load ptr, ptr %7, align 8, !tbaa !29
  %95 = getelementptr inbounds nuw %struct.MovTextContext, ptr %94, i32 0, i32 9
  %96 = getelementptr inbounds nuw %struct.HighlightBox, ptr %95, i32 0, i32 1
  store i16 %93, ptr %96, align 2, !tbaa !116
  br label %97

97:                                               ; preds = %90, %61
  br label %98

98:                                               ; preds = %97, %25
  br label %99

99:                                               ; preds = %98, %22
  call void @llvm.lifetime.end.p0(i64 8, ptr %7) #11
  ret void
}