; Function Attrs: nounwind uwtable
define internal void @mov_text_color_cb(ptr noundef %0, i32 noundef %1, i32 noundef %2) #1 {
  %4 = shl i32 %1, 16
  %5 = and i32 %4, 16711680
  %6 = and i32 %1, 65280
  %7 = or disjoint i32 %5, %6
  %8 = lshr i32 %1, 16
  %9 = and i32 %8, 255
  %10 = or disjoint i32 %7, %9
  %11 = shl nuw i32 %10, 8
  switch i32 %2, label %mov_text_color_set.exit [
    i32 1, label %12
    i32 2, label %23
  ]

12:                                               ; preds = %3
  %13 = getelementptr inbounds nuw i8, ptr %0, i64 60
  %14 = load i32, ptr %13, align 4, !tbaa !97
  %15 = and i32 %14, -256
  %16 = icmp eq i32 %15, %11
  br i1 %16, label %mov_text_color_set.exit, label %17

17:                                               ; preds = %12
  %18 = tail call fastcc i32 @mov_text_style_start(ptr noundef nonnull %0)
  %.not.i = icmp eq i32 %18, 0
  br i1 %.not.i, label %mov_text_color_set.exit, label %19

19:                                               ; preds = %17
  %20 = load i32, ptr %13, align 4, !tbaa !97
  %21 = and i32 %20, 255
  %22 = or disjoint i32 %21, %11
  store i32 %22, ptr %13, align 4, !tbaa !97
  br label %mov_text_color_set.exit

23:                                               ; preds = %3
  %24 = getelementptr inbounds nuw i8, ptr %0, i64 1096
  %25 = load i8, ptr %24, align 8, !tbaa !76
  %26 = and i8 %25, 4
  %.not = icmp eq i8 %26, 0
  br i1 %.not, label %27, label %31

27:                                               ; preds = %23
  %28 = getelementptr inbounds nuw i8, ptr %0, i64 60
  %29 = load i32, ptr %28, align 4, !tbaa !97
  %30 = getelementptr inbounds nuw i8, ptr %0, i64 1092
  store i32 %29, ptr %30, align 4, !tbaa !108
  br label %31

31:                                               ; preds = %27, %23
  %32 = and i8 %25, 2
  %.not22 = icmp eq i8 %32, 0
  br i1 %.not22, label %._crit_edge, label %33

._crit_edge:                                      ; preds = %31
  %.phi.trans.insert = getelementptr inbounds nuw i8, ptr %0, i64 1116
  %.pre = load i16, ptr %.phi.trans.insert, align 4, !tbaa !74
  br label %39

33:                                               ; preds = %31
  %34 = getelementptr inbounds nuw i8, ptr %0, i64 1088
  %35 = load i16, ptr %34, align 8, !tbaa !109
  %36 = getelementptr inbounds nuw i8, ptr %0, i64 1116
  %37 = load i16, ptr %36, align 4, !tbaa !74
  %38 = icmp eq i16 %35, %37
  br i1 %38, label %39, label %47

39:                                               ; preds = %._crit_edge, %33
  %40 = phi i16 [ %.pre, %._crit_edge ], [ %35, %33 ]
  %41 = or i8 %25, 6
  store i8 %41, ptr %24, align 8, !tbaa !76
  %42 = getelementptr inbounds nuw i8, ptr %0, i64 1088
  store i16 %40, ptr %42, align 8, !tbaa !109
  %43 = getelementptr inbounds nuw i8, ptr %0, i64 1092
  %44 = load i32, ptr %43, align 4, !tbaa !108
  %45 = and i32 %44, 255
  %46 = or disjoint i32 %45, %11
  store i32 %46, ptr %43, align 4, !tbaa !108
  br label %mov_text_color_set.exit

47:                                               ; preds = %33
  %48 = getelementptr inbounds nuw i8, ptr %0, i64 1090
  store i16 %37, ptr %48, align 2, !tbaa !110
  br label %mov_text_color_set.exit

mov_text_color_set.exit:                          ; preds = %19, %17, %12, %3, %47, %39
  ret void
}